Certificate:
    Data:
        Version: 3 (0x2)
        Serial Number:
            0e:8b:f3:77:0d:92:d1:96:f0:bb:61:f9:3c:41:66:be
        Signature Algorithm: ecdsa-with-SHA256
        Issuer: C = US, O = "DigiCert, Inc.", CN = DigiCert High Assurance TLS Hybrid ECC SHA256 2020 CA1
        Validity
            Not Before: Mar 25 00:00:00 2021 GMT
            Not After : Mar 30 23:59:59 2022 GMT
        Subject: C = US, ST = California, L = San Francisco, O = "GitHub, Inc.", CN = github.com
        Subject Public Key Info:
            Public Key Algorithm: id-ecPublicKey
                Public-Key: (256 bit)
                pub:
                    04:ad:f6:f7:75:b1:d3:49:54:0a:5d:10:71:bd:dc:
                    25:06:4b:22:1c:a2:23:4e:9f:a1:fe:b9:d0:8c:bd:
                    39:bc:0c:23:c7:cf:91:a6:90:5a:d8:45:ab:03:13:
                    be:c1:23:7a:b9:c4:c8:9d:47:f6:96:e0:b9:76:6b:
                    50:36:66:f7:0d
                ASN1 OID: prime256v1
                NIST CURVE: P-256
        X509v3 extensions:
            X509v3 Authority Key Identifier: 
                50:61:A6:A0:D2:35:C4:11:2A:20:8D:1F:0F:AC:42:F0:CD:29:CF:4B
            X509v3 Subject Key Identifier: 
                27:B1:7E:9F:BB:26:99:50:D8:F3:C3:53:5B:FE:31:16:B0:BB:1E:72
            X509v3 Subject Alternative Name: 
                DNS:github.com, DNS:www.github.com
            X509v3 Key Usage: critical
                Digital Signature
            X509v3 Extended Key Usage: 
                TLS Web Server Authentication, TLS Web Client Authentication
            X509v3 CRL Distribution Points: 
                Full Name:
                  URI:http://crl3.digicert.com/DigiCertHighAssuranceTLSHybridECCSHA2562020CA1.crl
                Full Name:
                  URI:http://crl4.digicert.com/DigiCertHighAssuranceTLSHybridECCSHA2562020CA1.crl
            X509v3 Certificate Policies: 
                Policy: 2.23.140.1.2.2
                  CPS: http://www.digicert.com/CPS
            Authority Information Access: 
                OCSP - URI:http://ocsp.digicert.com
                CA Issuers - URI:http://cacerts.digicert.com/DigiCertHighAssuranceTLSHybridECCSHA2562020CA1.crt
            X509v3 Basic Constraints: critical
                CA:FALSE
            CT Precertificate SCTs: 
                Signed Certificate Timestamp:
                    Version   : v1 (0x0)
                    Log ID    : 29:79:BE:F0:9E:39:39:21:F0:56:73:9F:63:A5:77:E5:
                                BE:57:7D:9C:60:0A:F8:F9:4D:5D:26:5C:25:5D:C7:84
                    Timestamp : Mar 25 18:57:33.978 2021 GMT
                    Extensions: none
                    Signature : ecdsa-with-SHA256
                                30:45:02:21:00:9E:E6:88:44:7F:FC:34:45:9C:32:4D:
                                9F:AB:94:86:06:AE:DD:63:2D:E2:F5:5F:63:97:46:8A:
                                0B:A5:39:D8:D7:02:20:48:54:27:D1:C6:32:B5:BF:81:
                                77:D7:EB:15:68:AC:F2:C8:EE:C9:01:AD:1F:CC:34:0C:
                                EE:C9:10:72:44:98:59
                Signed Certificate Timestamp:
                    Version   : v1 (0x0)
                    Log ID    : 22:45:45:07:59:55:24:56:96:3F:A1:2F:F1:F7:6D:86:
                                E0:23:26:63:AD:C0:4B:7F:5D:C6:83:5C:6E:E2:0F:02
                    Timestamp : Mar 25 18:57:34.009 2021 GMT
                    Extensions: none
                    Signature : ecdsa-with-SHA256
                                30:46:02:21:00:98:00:12:4A:09:41:18:AF:06:5C:28:
                                EF:1E:BB:DE:85:6C:7F:58:A9:D3:DE:96:B2:16:6A:99:
                                10:AE:2F:F2:69:02:21:00:DD:C5:F8:AD:BD:F0:68:B0:
                                CB:AB:80:B8:F0:D4:A8:52:67:30:E7:A3:F0:3B:F9:B6:
                                BB:09:D0:A6:B6:FE:CA:1D
    Signature Algorithm: ecdsa-with-SHA256
    Signature Value:
        30:44:02:20:2b:e2:af:ec:6f:bf:2a:45:a4:35:98:37:3d:c4:
        05:a7:ce:ba:67:b1:ba:b2:8c:68:6b:87:ad:49:9f:92:46:56:
        02:20:14:a2:5d:2d:b4:59:cf:b2:8c:3d:75:d6:73:f3:bd:05:
        02:7e:c3:f8:f8:32:99:dc:af:b6:18:ab:04:44:3e:9d
-----BEGIN CERTIFICATE-----
MIIFBjCCBK2gAwIBAgIQDovzdw2S0Zbwu2H5PEFmvjAKBggqhkjOPQQDAjBnMQsw
CQYDVQQGEwJVUzEXMBUGA1UEChMORGlnaUNlcnQsIEluYy4xPzA9BgNVBAMTNkRp
Z2lDZXJ0IEhpZ2ggQXNzdXJhbmNlIFRMUyBIeWJyaWQgRUNDIFNIQTI1NiAyMDIw
IENBMTAeFw0yMTAzMjUwMDAwMDBaFw0yMjAzMzAyMzU5NTlaMGYxCzAJBgNVBAYT
AlVTMRMwEQYDVQQIEwpDYWxpZm9ybmlhMRYwFAYDVQQHEw1TYW4gRnJhbmNpc2Nv
MRUwEwYDVQQKEwxHaXRIdWIsIEluYy4xEzARBgNVBAMTCmdpdGh1Yi5jb20wWTAT
BgcqhkjOPQIBBggqhkjOPQMBBwNCAASt9vd1sdNJVApdEHG93CUGSyIcoiNOn6H+
udCMvTm8DCPHz5GmkFrYRasDE77BI3q5xMidR/aW4Ll2a1A2ZvcNo4IDOjCCAzYw
HwYDVR0jBBgwFoAUUGGmoNI1xBEqII0fD6xC8M0pz0swHQYDVR0OBBYEFCexfp+7
JplQ2PPDU1v+MRawux5yMCUGA1UdEQQeMByCCmdpdGh1Yi5jb22CDnd3dy5naXRo
dWIuY29tMA4GA1UdDwEB/wQEAwIHgDAdBgNVHSUEFjAUBggrBgEFBQcDAQYIKwYB
BQUHAwIwgbEGA1UdHwSBqTCBpjBRoE+gTYZLaHR0cDovL2NybDMuZGlnaWNlcnQu
Y29tL0RpZ2lDZXJ0SGlnaEFzc3VyYW5jZVRMU0h5YnJpZEVDQ1NIQTI1NjIwMjBD
QTEuY3JsMFGgT6BNhktodHRwOi8vY3JsNC5kaWdpY2VydC5jb20vRGlnaUNlcnRI
aWdoQXNzdXJhbmNlVExTSHlicmlkRUNDU0hBMjU2MjAyMENBMS5jcmwwPgYDVR0g
BDcwNTAzBgZngQwBAgIwKTAnBggrBgEFBQcCARYbaHR0cDovL3d3dy5kaWdpY2Vy
dC5jb20vQ1BTMIGSBggrBgEFBQcBAQSBhTCBgjAkBggrBgEFBQcwAYYYaHR0cDov
L29jc3AuZGlnaWNlcnQuY29tMFoGCCsGAQUFBzAChk5odHRwOi8vY2FjZXJ0cy5k
aWdpY2VydC5jb20vRGlnaUNlcnRIaWdoQXNzdXJhbmNlVExTSHlicmlkRUNDU0hB
MjU2MjAyMENBMS5jcnQwDAYDVR0TAQH/BAIwADCCAQUGCisGAQQB1nkCBAIEgfYE
gfMA8QB2ACl5vvCeOTkh8FZzn2Old+W+V32cYAr4+U1dJlwlXceEAAABeGq/vRoA
AAQDAEcwRQIhAJ7miER//DRFnDJNn6uUhgau3WMt4vVfY5dGigulOdjXAiBIVCfR
xjK1v4F31+sVaKzyyO7JAa0fzDQM7skQckSYWQB3ACJFRQdZVSRWlj+hL/H3bYbg
IyZjrcBLf13Gg1xu4g8CAAABeGq/vTkAAAQDAEgwRgIhAJgAEkoJQRivBlwo7x67
3oVsf1ip096WshZqmRCuL/JpAiEA3cX4rb3waLDLq4C48NSoUmcw56PwO/m2uwnQ
prb+yh0wCgYIKoZIzj0EAwIDRwAwRAIgK+Kv7G+/KkWkNZg3PcQFp866Z7G6soxo
a4etSZ+SRlYCIBSiXS20Wc+yjD111nPzvQUCfsP4+DKZ3K+2GKsERD6d
-----END CERTIFICATE-----
