Certificate:
    Data:
        Version: 3 (0x2)
        Serial Number:
            04:00:00:00:00:01:2f:4e:e1:3d:6b
        Signature Algorithm: sha1WithRSAEncryption
        Issuer: C = BE, O = GlobalSign nv-sa, OU = Root CA, CN = GlobalSign Root CA
        Validity
            Not Before: Apr 13 10:00:00 2011 GMT
            Not After : Jan 28 12:00:00 2028 GMT
        Subject: C = BE, O = GlobalSign nv-sa, CN = GlobalSign PersonalSign Partners CA - G2
        Subject Public Key Info:
            Public Key Algorithm: rsaEncryption
                Public-Key: (2048 bit)
                Modulus:
                    00:9f:e7:7d:d4:0d:99:89:d7:1d:b6:25:1f:45:8e:
                    4d:70:e4:71:ed:68:35:43:17:67:53:c3:eb:c4:49:
                    aa:9b:2f:dd:5c:24:1a:84:5a:82:c8:62:fd:99:16:
                    e6:48:61:9b:c1:6a:c9:7a:df:ce:f6:5c:00:33:48:
                    0c:77:a1:e5:d8:09:e4:33:b7:a8:bf:85:b2:b1:ae:
                    af:df:db:1e:df:2b:c3:ac:b1:2f:27:72:9c:d7:7c:
                    e5:1d:5c:01:a0:2d:72:d0:8f:c9:94:13:be:3c:93:
                    c4:20:0d:72:90:52:da:2e:1d:a7:8a:ee:9a:7a:b4:
                    34:61:43:81:d3:55:6c:2c:18:4b:97:7b:c9:1e:cc:
                    be:b8:b0:a9:b3:b2:89:4a:bb:12:38:57:7e:ee:44:
                    7a:4c:bd:e8:ae:48:88:36:1a:05:32:9c:92:f3:eb:
                    50:f9:7d:b1:2b:17:af:ae:9b:68:b8:17:a0:fc:58:
                    c3:ea:0a:06:f2:a6:99:12:95:9f:c8:c8:a3:da:a4:
                    75:59:58:f6:cf:1d:3b:bc:f9:ee:3c:f4:44:27:76:
                    1a:b0:33:6f:0f:49:04:83:cb:34:5f:a1:1b:d4:02:
                    28:0c:0a:3b:fd:fc:57:de:f0:b2:d2:22:c4:dd:a9:
                    05:31:37:a4:ae:a4:68:3b:89:66:b4:40:7c:e2:61:
                    ea:23
                Exponent: 65537 (0x10001)
        X509v3 extensions:
            X509v3 Key Usage: critical
                Certificate Sign, CRL Sign
            X509v3 Basic Constraints: critical
                CA:TRUE, pathlen:1
            X509v3 Subject Key Identifier: 
                C5:7D:DA:83:E5:47:57:AA:C5:77:12:A7:CE:D9:0A:07:41:67:DF:39
            X509v3 Certificate Policies: 
                Policy: X509v3 Any Policy
                  CPS: https://www.globalsign.com/repository/
            X509v3 CRL Distribution Points: 
                Full Name:
                  URI:http://crl.globalsign.net/root.crl
            X509v3 Authority Key Identifier: 
                60:7B:66:1A:45:0D:97:CA:89:50:2F:7D:04:CD:34:A8:FF:FC:FD:4B
    Signature Algorithm: sha1WithRSAEncryption
    Signature Value:
        43:4c:1b:01:22:79:fb:d9:79:00:cb:a7:31:19:b9:11:cb:3d:
        d2:1d:0a:cb:d2:06:ac:e3:df:a6:05:1d:61:79:6a:9b:7f:a2:
        ee:c2:05:20:dd:d0:9c:c5:e5:0a:57:d4:28:91:eb:0e:4d:6f:
        da:60:3f:6b:6b:0d:18:92:b2:23:52:b4:4a:37:b7:ad:11:e3:
        de:89:4c:8b:b0:b4:be:5c:5b:80:71:c3:dc:2a:77:ea:37:c7:
        03:95:19:59:26:e5:0a:46:f6:7c:03:9a:a5:42:96:11:16:99:
        06:ac:85:a9:55:b9:7c:0b:80:94:bd:59:19:15:16:6b:62:b7:
        6e:1b:32:da:64:74:7a:5e:a1:95:80:3f:e2:78:82:09:b2:09:
        fd:d1:d0:b9:b7:39:f6:dc:be:d8:e1:40:57:73:9a:d2:48:b5:
        fd:25:b1:3a:46:42:2a:52:22:01:1b:93:27:32:93:e8:b6:bc:
        8f:c8:2d:e9:31:c6:ff:bd:47:85:cb:53:9e:dc:be:a3:e8:ea:
        86:ba:c2:1a:8c:f7:c3:c1:db:c2:69:9f:d7:a6:48:a9:7a:51:
        84:5f:8a:03:93:29:da:71:25:4b:65:eb:5a:3d:e4:3c:3d:50:
        5b:ac:3a:71:cb:61:6a:e3:81:82:de:69:7c:0a:5f:94:dd:6b:
        8a:88:a6:39
-----BEGIN CERTIFICATE-----
MIIEHTCCAwWgAwIBAgILBAAAAAABL07hPWswDQYJKoZIhvcNAQEFBQAwVzELMAkG
A1UEBhMCQkUxGTAXBgNVBAoTEEdsb2JhbFNpZ24gbnYtc2ExEDAOBgNVBAsTB1Jv
b3QgQ0ExGzAZBgNVBAMTEkdsb2JhbFNpZ24gUm9vdCBDQTAeFw0xMTA0MTMxMDAw
MDBaFw0yODAxMjgxMjAwMDBaMFsxCzAJBgNVBAYTAkJFMRkwFwYDVQQKExBHbG9i
YWxTaWduIG52LXNhMTEwLwYDVQQDEyhHbG9iYWxTaWduIFBlcnNvbmFsU2lnbiBQ
YXJ0bmVycyBDQSAtIEcyMIIBIjANBgkqhkiG9w0BAQEFAAOCAQ8AMIIBCgKCAQEA
n+d91A2ZidcdtiUfRY5NcORx7Wg1QxdnU8PrxEmqmy/dXCQahFqCyGL9mRbmSGGb
wWrJet/O9lwAM0gMd6Hl2AnkM7eov4Wysa6v39se3yvDrLEvJ3Kc13zlHVwBoC1y
0I/JlBO+PJPEIA1ykFLaLh2niu6aerQ0YUOB01VsLBhLl3vJHsy+uLCps7KJSrsS
OFd+7kR6TL3orkiINhoFMpyS8+tQ+X2xKxevrptouBeg/FjD6goG8qaZEpWfyMij
2qR1WVj2zx07vPnuPPREJ3YasDNvD0kEg8s0X6Eb1AIoDAo7/fxX3vCy0iLE3akF
MTekrqRoO4lmtEB84mHqIwIDAQABo4HlMIHiMA4GA1UdDwEB/wQEAwIBBjASBgNV
HRMBAf8ECDAGAQH/AgEBMB0GA1UdDgQWBBTFfdqD5UdXqsV3EqfO2QoHQWffOTBH
BgNVHSAEQDA+MDwGBFUdIAAwNDAyBggrBgEFBQcCARYmaHR0cHM6Ly93d3cuZ2xv
YmFsc2lnbi5jb20vcmVwb3NpdG9yeS8wMwYDVR0fBCwwKjAooCagJIYiaHR0cDov
L2NybC5nbG9iYWxzaWduLm5ldC9yb290LmNybDAfBgNVHSMEGDAWgBRge2YaRQ2X
yolQL30EzTSo//z9SzANBgkqhkiG9w0BAQUFAAOCAQEAQ0wbASJ5+9l5AMunMRm5
Ecs90h0Ky9IGrOPfpgUdYXlqm3+i7sIFIN3QnMXlClfUKJHrDk1v2mA/a2sNGJKy
I1K0Sje3rRHj3olMi7C0vlxbgHHD3Cp36jfHA5UZWSblCkb2fAOapUKWERaZBqyF
qVW5fAuAlL1ZGRUWa2K3bhsy2mR0el6hlYA/4niCCbIJ/dHQubc59ty+2OFAV3Oa
0ki1/SWxOkZCKlIiARuTJzKT6La8j8gt6THG/71HhctTnty+o+jqhrrCGoz3w8Hb
wmmf16ZIqXpRhF+KA5Mp2nElS2XrWj3kPD1QW6w6ccthauOBgt5pfApflN1rioim
OQ==
-----END CERTIFICATE-----
